; Function Attrs: nounwind uwtable
define void @Abc_NtkInputMiniAig(ptr noundef %0, ptr noundef readonly captures(none) %1) local_unnamed_addr #2 {
  %3 = icmp eq ptr %0, null
  br i1 %3, label %4, label %5

4:                                                ; preds = %2
  %puts = tail call i32 @puts(ptr nonnull dereferenceable(1) @str.3)
  br label %5

5:                                                ; preds = %4, %2
  %6 = tail call ptr @Abc_NtkFromMiniAig(ptr noundef %1)
  tail call void @Abc_FrameReplaceCurrentNetwork(ptr noundef %0, ptr noundef %6) #11
  ret void
}